; ModuleID = '31/1002.c'
source_filename = "31/1002.c"
target datalayout = "e-m:e-p270:32:32-p271:32:32-p272:64:64-i64:64-f80:128-n8:16:32:64-S128"
target triple = "x86_64-pc-linux-gnu"

%struct.student = type { [300 x i8], %struct.student* }

@n = common dso_local global i32 0, align 4
@.str = private unnamed_addr constant [4 x i8] c"end\00", align 1
@.str.1 = private unnamed_addr constant [4 x i8] c"%s\0A\00", align 1

; Function Attrs: noinline nounwind uwtable
define dso_local %struct.student* @create() #0 {
  %1 = alloca %struct.student*, align 8
  %2 = alloca %struct.student*, align 8
  %3 = alloca %struct.student*, align 8
  store i32 0, i32* @n, align 4
  %4 = call noalias i8* @malloc(i64 100) #4
  %5 = bitcast i8* %4 to %struct.student*
  store %struct.student* %5, %struct.student** %1, align 8
  store %struct.student* %5, %struct.student** %3, align 8
  store %struct.student* %5, %struct.student** %2, align 8
  %6 = load %struct.student*, %struct.student** %1, align 8
  %7 = getelementptr inbounds %struct.student, %struct.student* %6, i32 0, i32 0
  %8 = getelementptr inbounds [300 x i8], [300 x i8]* %7, i64 0, i64 0
  %9 = call i32 (i8*, ...) bitcast (i32 (...)* @gets to i32 (i8*, ...)*)(i8* %8)
  %10 = load %struct.student*, %struct.student** %1, align 8
  %11 = getelementptr inbounds %struct.student, %struct.student* %10, i32 0, i32 1
  store %struct.student* null, %struct.student** %11, align 8
  br label %12

12:                                               ; preds = %18, %0
  %13 = load %struct.student*, %struct.student** %2, align 8
  %14 = getelementptr inbounds %struct.student, %struct.student* %13, i32 0, i32 0
  %15 = getelementptr inbounds [300 x i8], [300 x i8]* %14, i64 0, i64 0
  %16 = call i32 @strcmp(i8* getelementptr inbounds ([4 x i8], [4 x i8]* @.str, i64 0, i64 0), i8* %15) #5
  %17 = icmp ne i32 %16, 0
  br i1 %17, label %18, label %29

18:                                               ; preds = %12
  %19 = load %struct.student*, %struct.student** %2, align 8
  store %struct.student* %19, %struct.student** %1, align 8
  %20 = call noalias i8* @malloc(i64 100) #4
  %21 = bitcast i8* %20 to %struct.student*
  store %struct.student* %21, %struct.student** %2, align 8
  %22 = load %struct.student*, %struct.student** %1, align 8
  %23 = load %struct.student*, %struct.student** %2, align 8
  %24 = getelementptr inbounds %struct.student, %struct.student* %23, i32 0, i32 1
  store %struct.student* %22, %struct.student** %24, align 8
  %25 = load %struct.student*, %struct.student** %2, align 8
  %26 = getelementptr inbounds %struct.student, %struct.student* %25, i32 0, i32 0
  %27 = getelementptr inbounds [300 x i8], [300 x i8]* %26, i64 0, i64 0
  %28 = call i32 (i8*, ...) bitcast (i32 (...)* @gets to i32 (i8*, ...)*)(i8* %27)
  br label %12

29:                                               ; preds = %12
  %30 = load %struct.student*, %struct.student** %1, align 8
  ret %struct.student* %30
}

; Function Attrs: nounwind
declare dso_local noalias i8* @malloc(i64) #1

declare dso_local i32 @gets(...) #2

; Function Attrs: nounwind readonly
declare dso_local i32 @strcmp(i8*, i8*) #3

; Function Attrs: noinline nounwind uwtable
define dso_local i32 @main() #0 {
  %1 = alloca i32, align 4
  %2 = alloca %struct.student*, align 8
  store i32 0, i32* %1, align 4
  %3 = call %struct.student* @create()
  store %struct.student* %3, %struct.student** %2, align 8
  br label %4

4:                                                ; preds = %12, %0
  %5 = load %struct.student*, %struct.student** %2, align 8
  %6 = getelementptr inbounds %struct.student, %struct.student* %5, i32 0, i32 0
  %7 = getelementptr inbounds [300 x i8], [300 x i8]* %6, i64 0, i64 0
  %8 = call i32 (i8*, ...) @printf(i8* getelementptr inbounds ([4 x i8], [4 x i8]* @.str.1, i64 0, i64 0), i8* %7)
  %9 = load %struct.student*, %struct.student** %2, align 8
  %10 = getelementptr inbounds %struct.student, %struct.student* %9, i32 0, i32 1
  %11 = load %struct.student*, %struct.student** %10, align 8
  store %struct.student* %11, %struct.student** %2, align 8
  br label %12

12:                                               ; preds = %4
  %13 = load %struct.student*, %struct.student** %2, align 8
  %14 = getelementptr inbounds %struct.student, %struct.student* %13, i32 0, i32 1
  %15 = load %struct.student*, %struct.student** %14, align 8
  %16 = icmp ne %struct.student* %15, null
  br i1 %16, label %4, label %17

17:                                               ; preds = %12
  %18 = load %struct.student*, %struct.student** %2, align 8
  %19 = getelementptr inbounds %struct.student, %struct.student* %18, i32 0, i32 0
  %20 = getelementptr inbounds [300 x i8], [300 x i8]* %19, i64 0, i64 0
  %21 = call i32 (i8*, ...) @printf(i8* getelementptr inbounds ([4 x i8], [4 x i8]* @.str.1, i64 0, i64 0), i8* %20)
  ret i32 7
}

declare dso_local i32 @printf(i8*, ...) #2


!llvm.module.flags = !{!0}
!llvm.ident = !{!1}

!0 = !{i32 1, !"wchar_size", i32 4}
!1 = !{!"clang version 10.0.0-4ubuntu1 "}
